; Function Attrs: mustprogress nounwind uwtable
define dso_local noundef i64 @_ZNK4Luau7CodeGen12NativeModule7releaseEv(ptr noundef nonnull align 8 dereferenceable(72) %0) local_unnamed_addr #0 align 2 personality ptr @__gxx_personality_v0 {
  %2 = atomicrmw sub ptr %0, i64 1 seq_cst, align 8
  %3 = add i64 %2, -1
  %.not = icmp eq i64 %3, 0
  br i1 %.not, label %4, label %7

4:                                                ; preds = %1
  %5 = getelementptr inbounds i8, ptr %0, i64 8
  %6 = load ptr, ptr %5, align 8
  invoke void @_ZN4Luau7CodeGen19SharedCodeAllocator31eraseNativeModuleIfUnreferencedERKNS0_12NativeModuleE(ptr noundef nonnull align 8 dereferenceable(112) %6, ptr noundef nonnull align 8 dereferenceable(72) %0)
          to label %7 unwind label %8

7:                                                ; preds = %4, %1
  ret i64 %3

8:                                                ; preds = %4
  %9 = landingpad { ptr, i32 }
          catch ptr null
  %10 = extractvalue { ptr, i32 } %9, 0
  tail call void @__clang_call_terminate(ptr %10) #21
  unreachable
}